target datalayout = "e-m:e-p270:32:32-p271:32:32-p272:64:64-i64:64-i128:128-f80:128-n8:16:32:64-S128"
target triple = "x86_64-unknown-linux-gnu"

%"struct.openvdb::v11_0::points::(anonymous namespace)::LockedAttributeRegistry" = type { %"class.tbb::detail::d1::spin_mutex", %"class.std::map" }
%"class.tbb::detail::d1::spin_mutex" = type { %"struct.std::atomic" }
%"struct.std::atomic" = type { %"struct.std::__atomic_base" }
%"struct.std::__atomic_base" = type { i8 }
%"class.std::map" = type { %"class.std::_Rb_tree" }
%"class.std::_Rb_tree" = type { %"struct.std::_Rb_tree<std::pair<std::__cxx11::basic_string<char>, std::__cxx11::basic_string<char>>, std::pair<const std::pair<std::__cxx11::basic_string<char>, std::__cxx11::basic_string<char>>, std::shared_ptr<openvdb::v11_0::points::AttributeArray> (*)(unsigned int, unsigned int, bool, const openvdb::v11_0::Metadata *)>, std::_Select1st<std::pair<const std::pair<std::__cxx11::basic_string<char>, std::__cxx11::basic_string<char>>, std::shared_ptr<openvdb::v11_0::points::AttributeArray> (*)(unsigned int, unsigned int, bool, const openvdb::v11_0::Metadata *)>>, std::less<std::pair<std::__cxx11::basic_string<char>, std::__cxx11::basic_string<char>>>>::_Rb_tree_impl" }
%"struct.std::_Rb_tree<std::pair<std::__cxx11::basic_string<char>, std::__cxx11::basic_string<char>>, std::pair<const std::pair<std::__cxx11::basic_string<char>, std::__cxx11::basic_string<char>>, std::shared_ptr<openvdb::v11_0::points::AttributeArray> (*)(unsigned int, unsigned int, bool, const openvdb::v11_0::Metadata *)>, std::_Select1st<std::pair<const std::pair<std::__cxx11::basic_string<char>, std::__cxx11::basic_string<char>>, std::shared_ptr<openvdb::v11_0::points::AttributeArray> (*)(unsigned int, unsigned int, bool, const openvdb::v11_0::Metadata *)>>, std::less<std::pair<std::__cxx11::basic_string<char>, std::__cxx11::basic_string<char>>>>::_Rb_tree_impl" = type { %"struct.std::_Rb_tree_key_compare", %"struct.std::_Rb_tree_header" }
%"struct.std::_Rb_tree_key_compare" = type { %"struct.std::less" }
%"struct.std::less" = type { i8 }
%"struct.std::_Rb_tree_header" = type { %"struct.std::_Rb_tree_node_base", i64 }
%"struct.std::_Rb_tree_node_base" = type { i32, ptr, ptr, ptr }

; Function Attrs: mustprogress nounwind uwtable
define linkonce_odr void @_ZNSt15__new_allocatorISt13_Rb_tree_nodeISt4pairIKS1_INSt7__cxx1112basic_stringIcSt11char_traitsIcESaIcEEES7_EPFSt10shared_ptrIN7openvdb5v11_06points14AttributeArrayEEjjbPKNSC_8MetadataEEEEED2Ev(ptr noundef nonnull align 1 dereferenceable(1) %this) unnamed_addr #5 comdat align 2 {
entry:
  %this.addr = alloca ptr, align 8
  store ptr %this, ptr %this.addr, align 8
  ret void
}

; Function Attrs: mustprogress nounwind uwtable
define linkonce_odr void @_ZNSaISt13_Rb_tree_nodeISt4pairIKS0_INSt7__cxx1112basic_stringIcSt11char_traitsIcESaIcEEES6_EPFSt10shared_ptrIN7openvdb5v11_06points14AttributeArrayEEjjbPKNSB_8MetadataEEEEED2Ev(ptr noundef nonnull align 1 dereferenceable(1) %this) unnamed_addr #5 comdat align 2 {
entry:
  %this.addr = alloca ptr, align 8
  store ptr %this, ptr %this.addr, align 8
  %this1 = load ptr, ptr %this.addr, align 8
  call void @_ZNSt15__new_allocatorISt13_Rb_tree_nodeISt4pairIKS1_INSt7__cxx1112basic_stringIcSt11char_traitsIcESaIcEEES7_EPFSt10shared_ptrIN7openvdb5v11_06points14AttributeArrayEEjjbPKNSC_8MetadataEEEEED2Ev(ptr noundef nonnull align 1 dereferenceable(1) %this1) #3
  ret void
}

; Function Attrs: mustprogress nounwind uwtable
define linkonce_odr noundef ptr @_ZNKSt8_Rb_treeISt4pairINSt7__cxx1112basic_stringIcSt11char_traitsIcESaIcEEES6_ES0_IKS7_PFSt10shared_ptrIN7openvdb5v11_06points14AttributeArrayEEjjbPKNSB_8MetadataEEESt10_Select1stISK_ESt4lessIS7_ESaISK_EE9_M_mbeginEv(ptr noundef nonnull align 8 dereferenceable(48) %this) #5 comdat align 2 {
entry:
  %this.addr = alloca ptr, align 8
  store ptr %this, ptr %this.addr, align 8
  %this1 = load ptr, ptr %this.addr, align 8
  %_M_impl = getelementptr inbounds %"class.std::_Rb_tree", ptr %this1, i32 0, i32 0
  %add.ptr = getelementptr inbounds i8, ptr %_M_impl, i64 8
  %_M_header = getelementptr inbounds %"struct.std::_Rb_tree_header", ptr %add.ptr, i32 0, i32 0
  %_M_parent = getelementptr inbounds %"struct.std::_Rb_tree_node_base", ptr %_M_header, i32 0, i32 1
  %0 = load ptr, ptr %_M_parent, align 8
  ret ptr %0
}

; Function Attrs: mustprogress nounwind uwtable
define linkonce_odr void @_ZNSt8_Rb_treeISt4pairINSt7__cxx1112basic_stringIcSt11char_traitsIcESaIcEEES6_ES0_IKS7_PFSt10shared_ptrIN7openvdb5v11_06points14AttributeArrayEEjjbPKNSB_8MetadataEEESt10_Select1stISK_ESt4lessIS7_ESaISK_EE13_Rb_tree_implISO_Lb1EED2Ev(ptr noundef nonnull align 8 dereferenceable(48) %this) unnamed_addr #5 comdat align 2 {
entry:
  %this.addr = alloca ptr, align 8
  store ptr %this, ptr %this.addr, align 8
  %this1 = load ptr, ptr %this.addr, align 8
  call void @_ZNSaISt13_Rb_tree_nodeISt4pairIKS0_INSt7__cxx1112basic_stringIcSt11char_traitsIcESaIcEEES6_EPFSt10shared_ptrIN7openvdb5v11_06points14AttributeArrayEEjjbPKNSB_8MetadataEEEEED2Ev(ptr noundef nonnull align 1 dereferenceable(1) %this1) #3
  ret void
}

; Function Attrs: mustprogress nounwind uwtable
define linkonce_odr noundef ptr @_ZNSt8_Rb_treeISt4pairINSt7__cxx1112basic_stringIcSt11char_traitsIcESaIcEEES6_ES0_IKS7_PFSt10shared_ptrIN7openvdb5v11_06points14AttributeArrayEEjjbPKNSB_8MetadataEEESt10_Select1stISK_ESt4lessIS7_ESaISK_EE8_M_beginEv(ptr noundef nonnull align 8 dereferenceable(48) %this) #5 comdat align 2 {
entry:
  %this.addr = alloca ptr, align 8
  store ptr %this, ptr %this.addr, align 8
  %this1 = load ptr, ptr %this.addr, align 8
  %call = call noundef ptr @_ZNKSt8_Rb_treeISt4pairINSt7__cxx1112basic_stringIcSt11char_traitsIcESaIcEEES6_ES0_IKS7_PFSt10shared_ptrIN7openvdb5v11_06points14AttributeArrayEEjjbPKNSB_8MetadataEEESt10_Select1stISK_ESt4lessIS7_ESaISK_EE9_M_mbeginEv(ptr noundef nonnull align 8 dereferenceable(48) %this1) #3
  ret ptr %call
}

; Function Attrs: mustprogress nounwind uwtable
define linkonce_odr void @_ZNSt8_Rb_treeISt4pairINSt7__cxx1112basic_stringIcSt11char_traitsIcESaIcEEES6_ES0_IKS7_PFSt10shared_ptrIN7openvdb5v11_06points14AttributeArrayEEjjbPKNSB_8MetadataEEESt10_Select1stISK_ESt4lessIS7_ESaISK_EED2Ev(ptr noundef nonnull align 8 dereferenceable(48) %this) unnamed_addr #5 comdat align 2 personality ptr @__gxx_personality_v0 {
entry:
  %this.addr = alloca ptr, align 8
  store ptr %this, ptr %this.addr, align 8
  %this1 = load ptr, ptr %this.addr, align 8
  %call = call noundef ptr @_ZNSt8_Rb_treeISt4pairINSt7__cxx1112basic_stringIcSt11char_traitsIcESaIcEEES6_ES0_IKS7_PFSt10shared_ptrIN7openvdb5v11_06points14AttributeArrayEEjjbPKNSB_8MetadataEEESt10_Select1stISK_ESt4lessIS7_ESaISK_EE8_M_beginEv(ptr noundef nonnull align 8 dereferenceable(48) %this1) #3
  invoke void @_ZNSt8_Rb_treeISt4pairINSt7__cxx1112basic_stringIcSt11char_traitsIcESaIcEEES6_ES0_IKS7_PFSt10shared_ptrIN7openvdb5v11_06points14AttributeArrayEEjjbPKNSB_8MetadataEEESt10_Select1stISK_ESt4lessIS7_ESaISK_EE8_M_eraseEPSt13_Rb_tree_nodeISK_E(ptr noundef nonnull align 8 dereferenceable(48) %this1, ptr noundef %call)
          to label %invoke.cont unwind label %terminate.lpad

invoke.cont:                                      ; preds = %entry
  %_M_impl = getelementptr inbounds %"class.std::_Rb_tree", ptr %this1, i32 0, i32 0
  call void @_ZNSt8_Rb_treeISt4pairINSt7__cxx1112basic_stringIcSt11char_traitsIcESaIcEEES6_ES0_IKS7_PFSt10shared_ptrIN7openvdb5v11_06points14AttributeArrayEEjjbPKNSB_8MetadataEEESt10_Select1stISK_ESt4lessIS7_ESaISK_EE13_Rb_tree_implISO_Lb1EED2Ev(ptr noundef nonnull align 8 dereferenceable(48) %_M_impl) #3
  ret void

terminate.lpad:                                   ; preds = %entry
  %0 = landingpad { ptr, i32 }
          catch ptr null
  %1 = extractvalue { ptr, i32 } %0, 0
  call void @__clang_call_terminate(ptr %1) #14
  unreachable
}

; Function Attrs: mustprogress nounwind uwtable
define linkonce_odr void @_ZNSt3mapISt4pairINSt7__cxx1112basic_stringIcSt11char_traitsIcESaIcEEES6_EPFSt10shared_ptrIN7openvdb5v11_06points14AttributeArrayEEjjbPKNSA_8MetadataEESt4lessIS7_ESaIS0_IKS7_SI_EEED2Ev(ptr noundef nonnull align 8 dereferenceable(48) %this) unnamed_addr #5 comdat align 2 {
entry:
  %this.addr = alloca ptr, align 8
  store ptr %this, ptr %this.addr, align 8
  %this1 = load ptr, ptr %this.addr, align 8
  %_M_t = getelementptr inbounds %"class.std::map", ptr %this1, i32 0, i32 0
  call void @_ZNSt8_Rb_treeISt4pairINSt7__cxx1112basic_stringIcSt11char_traitsIcESaIcEEES6_ES0_IKS7_PFSt10shared_ptrIN7openvdb5v11_06points14AttributeArrayEEjjbPKNSB_8MetadataEEESt10_Select1stISK_ESt4lessIS7_ESaISK_EED2Ev(ptr noundef nonnull align 8 dereferenceable(48) %_M_t) #3
  ret void
}

; Function Attrs: mustprogress nounwind uwtable
define internal void @_ZN7openvdb5v11_06points12_GLOBAL__N_123LockedAttributeRegistryD2Ev(ptr noundef nonnull align 8 dereferenceable(56) %this) unnamed_addr #5 align 2 {
entry:
  %this.addr = alloca ptr, align 8
  store ptr %this, ptr %this.addr, align 8
  %this1 = load ptr, ptr %this.addr, align 8
  %mMap = getelementptr inbounds %"struct.openvdb::v11_0::points::(anonymous namespace)::LockedAttributeRegistry", ptr %this1, i32 0, i32 1
  call void @_ZNSt3mapISt4pairINSt7__cxx1112basic_stringIcSt11char_traitsIcESaIcEEES6_EPFSt10shared_ptrIN7openvdb5v11_06points14AttributeArrayEEjjbPKNSA_8MetadataEESt4lessIS7_ESaIS0_IKS7_SI_EEED2Ev(ptr noundef nonnull align 8 dereferenceable(48) %mMap) #3
  ret void
}