; Function Attrs: mustprogress nounwind uwtable
define internal void @_ZN7openvdb5v11_06points12_GLOBAL__N_123LockedAttributeRegistryD2Ev(ptr noundef nonnull align 8 dereferenceable(56) %this) unnamed_addr #3 align 2 personality ptr @__gxx_personality_v0 {
entry:
  %mMap = getelementptr inbounds i8, ptr %this, i64 8
  %_M_parent.i.i.i.i = getelementptr inbounds i8, ptr %this, i64 24
  %0 = load ptr, ptr %_M_parent.i.i.i.i, align 8
  invoke void @_ZNSt8_Rb_treeISt4pairINSt7__cxx1112basic_stringIcSt11char_traitsIcESaIcEEES6_ES0_IKS7_PFSt10shared_ptrIN7openvdb5v11_06points14AttributeArrayEEjjbPKNSB_8MetadataEEESt10_Select1stISK_ESt4lessIS7_ESaISK_EE8_M_eraseEPSt13_Rb_tree_nodeISK_E(ptr noundef nonnull align 8 dereferenceable(48) %mMap, ptr noundef %0)
          to label %_ZNSt3mapISt4pairINSt7__cxx1112basic_stringIcSt11char_traitsIcESaIcEEES6_EPFSt10shared_ptrIN7openvdb5v11_06points14AttributeArrayEEjjbPKNSA_8MetadataEESt4lessIS7_ESaIS0_IKS7_SI_EEED2Ev.exit unwind label %terminate.lpad.i.i

terminate.lpad.i.i:                               ; preds = %entry
  %1 = landingpad { ptr, i32 }
          catch ptr null
  %2 = extractvalue { ptr, i32 } %1, 0
  tail call void @__clang_call_terminate(ptr %2) #18
  unreachable

_ZNSt3mapISt4pairINSt7__cxx1112basic_stringIcSt11char_traitsIcESaIcEEES6_EPFSt10shared_ptrIN7openvdb5v11_06points14AttributeArrayEEjjbPKNSA_8MetadataEESt4lessIS7_ESaIS0_IKS7_SI_EEED2Ev.exit: ; preds = %entry
  ret void
}